; Function Attrs: mustprogress nofree norecurse nosync nounwind willreturn memory(argmem: readwrite) uwtable
define void @_ZNK10open_spiel5tarok10TarokState24CollectedKingsAndOrTrulaERKSt6vectorIlSaIlEE(ptr dead_on_unwind noalias writable writeonly sret(%"class.std::tuple.55") align 1 captures(none) initializes((0, 2)) %0, ptr noundef nonnull readnone align 8 captures(none) dereferenceable(280) %1, ptr noundef nonnull readonly align 8 captures(none) dereferenceable(24) %2) local_unnamed_addr #15 align 2 personality ptr @__gxx_personality_v0 {
  %4 = load ptr, ptr %2, align 8
  %5 = getelementptr inbounds nuw i8, ptr %2, i64 8
  %6 = load ptr, ptr %5, align 8
  %.not10 = icmp eq ptr %4, %6
  br i1 %.not10, label %._crit_edge, label %.lr.ph.preheader

.lr.ph.preheader:                                 ; preds = %3
  %7 = ptrtoint ptr %6 to i64
  %8 = ptrtoint ptr %4 to i64
  %9 = add i64 %7, 34359738360
  %10 = sub i64 %9, %8
  %11 = and i64 %10, 34359738360
  %12 = icmp eq i64 %11, 24
  %13 = zext i1 %12 to i8
  br label %._crit_edge

._crit_edge:                                      ; preds = %.lr.ph.preheader, %3
  %.0.lcssa = phi i8 [ 0, %3 ], [ %13, %.lr.ph.preheader ]
  store i8 0, ptr %0, align 1
  %14 = getelementptr inbounds nuw i8, ptr %0, i64 1
  store i8 %.0.lcssa, ptr %14, align 1
  ret void
}